	.file	"inline_function.cpp"
	.text
	.section	.text$_Z3addii,"x"
	.linkonce discard
	.globl	__Z3addii
	.def	__Z3addii;	.scl	2;	.type	32;	.endef
__Z3addii:
LFB2581:
	.cfi_startproc
	pushl	%ebp
	.cfi_def_cfa_offset 8
	.cfi_offset 5, -8
	movl	%esp, %ebp
	.cfi_def_cfa_register 5
	movl	8(%ebp), %edx
	movl	12(%ebp), %eax
	addl	%edx, %eax
	popl	%ebp
	.cfi_restore 5
	.cfi_def_cfa 4, 4
	ret
	.cfi_endproc
LFE2581:
	.text
	.globl	_main
	.def	_main;	.scl	2;	.type	32;	.endef
_main:
LFB2582:
	.cfi_startproc
	leal	4(%esp), %ecx
	.cfi_def_cfa 1, 0
	andl	$-16, %esp
	pushl	-4(%ecx)
	pushl	%ebp
	movl	%esp, %ebp
	.cfi_escape 0x10,0x5,0x2,0x75,0
	pushl	%ecx
	.cfi_escape 0xf,0x3,0x75,0x7c,0x6
	subl	$36, %esp
	call	___main
	movl	$5, -12(%ebp)
	movl	$6, -16(%ebp)
	movl	-16(%ebp), %eax
	movl	%eax, 4(%esp)
	movl	-12(%ebp), %eax
	movl	%eax, (%esp)
	call	__Z3addii
	movl	%eax, -20(%ebp)
	movl	-20(%ebp), %eax
	movl	%eax, (%esp)
	movl	$__ZSt4cout, %ecx
	call	__ZNSolsEi
	subl	$4, %esp
	movl	$__ZSt4endlIcSt11char_traitsIcEERSt13basic_ostreamIT_T0_ES6_, (%esp)
	movl	%eax, %ecx
	call	__ZNSolsEPFRSoS_E
	subl	$4, %esp
	movl	$0, %eax
	movl	-4(%ebp), %ecx
	.cfi_def_cfa 1, 0
	leave
	.cfi_restore 5
	leal	-4(%ecx), %esp
	.cfi_def_cfa 4, 4
	ret
	.cfi_endproc
LFE2582:
	.section .rdata,"dr"
__ZNSt8__detail30__integer_to_chars_is_unsignedIjEE:
	.byte	1
__ZNSt8__detail30__integer_to_chars_is_unsignedImEE:
	.byte	1
__ZNSt8__detail30__integer_to_chars_is_unsignedIyEE:
	.byte	1
	.def	___main;	.scl	2;	.type	32;	.endef
	.ident	"GCC: (i686-mcf-dwarf-rev1, Built by MinGW-Builds project) 14.2.0"
	.def	__ZNSolsEi;	.scl	2;	.type	32;	.endef
	.def	__ZSt4endlIcSt11char_traitsIcEERSt13basic_ostreamIT_T0_ES6_;	.scl	2;	.type	32;	.endef
	.def	__ZNSolsEPFRSoS_E;	.scl	2;	.type	32;	.endef
